(lp0
((I2
I2
I2
tp1
S'715'
p2
tp3
a((I3
I3
I4
tp4
S'4389'
p5
tp6
a((I3
I3
I3
tp7
S'4679'
p8
tp9
a((I1
I0
I0
tp10
S'2005'
p11
tp12
a((I1
I1
I0
tp13
S'459'
p14
tp15
a((I5
I5
I6
tp16
S'458'
p17
tp18
a((I4
I4
I6
tp19
S'275'
p20
tp21
a((I5
I2
I2
tp22
S'177'
p23
tp24
a((I4
I3
I5
tp25
S'163'
p26
tp27
a((I1
I1
I1
tp28
S'623'
p29
tp30
a((I6
I2
I2
tp31
S'202'
p32
tp33
a.